; Function Attrs: inlinehint nounwind uwtable
define internal fastcc void @Gia_ManSimplifyAnd(ptr noundef captures(none) %0) unnamed_addr #3 {
  %2 = getelementptr i8, ptr %0, i64 4
  %.val2645 = load i32, ptr %2, align 4, !tbaa !45
  %3 = icmp sgt i32 %.val2645, 0
  br i1 %3, label %.lr.ph, label %.critedge.thread

.critedge.thread:                                 ; preds = %1
  store i32 0, ptr %2, align 4, !tbaa !45
  br label %29

.lr.ph:                                           ; preds = %1
  %4 = getelementptr i8, ptr %0, i64 8
  %.val27 = load ptr, ptr %4, align 8, !tbaa !36
  br label %5

5:                                                ; preds = %.lr.ph, %25
  %.val2650 = phi i32 [ %.val2645, %.lr.ph ], [ %.val26, %25 ]
  %indvars.iv = phi i64 [ 0, %.lr.ph ], [ %indvars.iv.next, %25 ]
  %.02147 = phi i32 [ -1, %.lr.ph ], [ %.1, %25 ]
  %.02246 = phi i32 [ 0, %.lr.ph ], [ %.123, %25 ]
  %6 = getelementptr inbounds nuw i32, ptr %.val27, i64 %indvars.iv
  %7 = load i32, ptr %6, align 4, !tbaa !38
  switch i32 %7, label %13 [
    i32 0, label %8
    i32 1, label %25
  ]

8:                                                ; preds = %5
  %9 = load i32, ptr %0, align 8, !tbaa !47
  %.not.i.i = icmp slt i32 %9, 1
  br i1 %.not.i.i, label %10, label %Vec_IntGrow.exit.i

10:                                               ; preds = %8
  %11 = tail call dereferenceable_or_null(4) ptr @realloc(ptr noundef nonnull %.val27, i64 noundef 4) #29
  store ptr %11, ptr %4, align 8, !tbaa !36
  store i32 1, ptr %0, align 8, !tbaa !47
  br label %Vec_IntGrow.exit.i

Vec_IntGrow.exit.i:                               ; preds = %10, %8
  %12 = phi ptr [ %11, %10 ], [ %.val27, %8 ]
  store i32 0, ptr %12, align 4, !tbaa !38
  store i32 1, ptr %2, align 4, !tbaa !45
  br label %45

13:                                               ; preds = %5
  %14 = icmp ne i32 %.02147, -1
  %.not.unshifted = xor i32 %7, %.02147
  %.not = icmp ult i32 %.not.unshifted, 2
  %or.cond = and i1 %14, %.not
  br i1 %or.cond, label %19, label %15

15:                                               ; preds = %13
  %16 = add nsw i32 %.02246, 1
  %17 = sext i32 %.02246 to i64
  %18 = getelementptr inbounds i32, ptr %.val27, i64 %17
  store i32 %7, ptr %18, align 4, !tbaa !38
  %.val26.pre = load i32, ptr %2, align 4, !tbaa !45
  br label %25

19:                                               ; preds = %13
  %.not25 = icmp eq i32 %.02147, %7
  br i1 %.not25, label %25, label %20

20:                                               ; preds = %19
  %21 = load i32, ptr %0, align 8, !tbaa !47
  %.not.i.i29 = icmp slt i32 %21, 1
  br i1 %.not.i.i29, label %22, label %Vec_IntGrow.exit.i30

22:                                               ; preds = %20
  %23 = tail call dereferenceable_or_null(4) ptr @realloc(ptr noundef nonnull %.val27, i64 noundef 4) #29
  store ptr %23, ptr %4, align 8, !tbaa !36
  store i32 1, ptr %0, align 8, !tbaa !47
  br label %Vec_IntGrow.exit.i30

Vec_IntGrow.exit.i30:                             ; preds = %22, %20
  %24 = phi ptr [ %23, %22 ], [ %.val27, %20 ]
  store i32 0, ptr %24, align 4, !tbaa !38
  store i32 1, ptr %2, align 4, !tbaa !45
  br label %45

25:                                               ; preds = %5, %15, %19
  %.val26 = phi i32 [ %.val26.pre, %15 ], [ %.val2650, %19 ], [ %.val2650, %5 ]
  %.123 = phi i32 [ %16, %15 ], [ %.02246, %19 ], [ %.02246, %5 ]
  %.1 = phi i32 [ %7, %15 ], [ %.02147, %19 ], [ %.02147, %5 ]
  %indvars.iv.next = add nuw nsw i64 %indvars.iv, 1
  %26 = sext i32 %.val26 to i64
  %27 = icmp slt i64 %indvars.iv.next, %26
  br i1 %27, label %5, label %.critedge, !llvm.loop !126

.critedge:                                        ; preds = %25
  store i32 %.123, ptr %2, align 4, !tbaa !45
  %28 = icmp eq i32 %.123, 0
  br i1 %28, label %29, label %45

29:                                               ; preds = %.critedge.thread, %.critedge
  %30 = load i32, ptr %0, align 8, !tbaa !47
  %31 = icmp eq i32 %30, 0
  %32 = getelementptr inbounds nuw i8, ptr %0, i64 8
  %33 = load ptr, ptr %32, align 8, !tbaa !36
  br i1 %31, label %34, label %Vec_IntPush.exit

34:                                               ; preds = %29
  %.not9.i.i36 = icmp eq ptr %33, null
  br i1 %.not9.i.i36, label %37, label %35

35:                                               ; preds = %34
  %36 = tail call dereferenceable_or_null(64) ptr @realloc(ptr noundef nonnull %33, i64 noundef 64) #29
  %.pre.pre = load i32, ptr %2, align 4, !tbaa !45
  br label %Vec_IntGrow.exit.i37

37:                                               ; preds = %34
  %38 = tail call noalias dereferenceable_or_null(64) ptr @malloc(i64 noundef 64) #28
  br label %Vec_IntGrow.exit.i37

Vec_IntGrow.exit.i37:                             ; preds = %37, %35
  %.pre = phi i32 [ %.pre.pre, %35 ], [ 0, %37 ]
  %39 = phi ptr [ %36, %35 ], [ %38, %37 ]
  store ptr %39, ptr %32, align 8, !tbaa !36
  store i32 16, ptr %0, align 8, !tbaa !47
  br label %Vec_IntPush.exit

Vec_IntPush.exit:                                 ; preds = %29, %Vec_IntGrow.exit.i37
  %40 = phi i32 [ %.pre, %Vec_IntGrow.exit.i37 ], [ 0, %29 ]
  %41 = phi ptr [ %39, %Vec_IntGrow.exit.i37 ], [ %33, %29 ]
  %42 = add nsw i32 %40, 1
  store i32 %42, ptr %2, align 4, !tbaa !45
  %43 = sext i32 %40 to i64
  %44 = getelementptr inbounds i32, ptr %41, i64 %43
  store i32 1, ptr %44, align 4, !tbaa !38
  br label %45

45:                                               ; preds = %.critedge, %Vec_IntPush.exit, %Vec_IntGrow.exit.i30, %Vec_IntGrow.exit.i
  ret void
}